; Function Attrs: nounwind uwtable
define internal void @cf_h1_proxy_destroy(ptr noundef %0, ptr noundef %1) #0 {
  %.not = icmp eq ptr %1, null
  br i1 %.not, label %22, label %3

3:                                                ; preds = %2
  %4 = getelementptr inbounds nuw i8, ptr %1, i64 2658
  %5 = load i64, ptr %4, align 2
  %6 = and i64 %5, 2147483648
  %.not12 = icmp eq i64 %6, 0
  br i1 %.not12, label %22, label %7

7:                                                ; preds = %3
  %8 = getelementptr inbounds nuw i8, ptr %1, i64 4864
  %9 = load ptr, ptr %8, align 8, !tbaa !3
  %.not13 = icmp eq ptr %9, null
  br i1 %.not13, label %15, label %10

10:                                               ; preds = %7
  %11 = getelementptr inbounds nuw i8, ptr %9, i64 8
  %12 = load i32, ptr %11, align 8, !tbaa !75
  %13 = icmp sgt i32 %12, 0
  %14 = icmp ne ptr %0, null
  %or.cond = and i1 %14, %13
  br i1 %or.cond, label %16, label %22

15:                                               ; preds = %7
  %.old1.not = icmp eq ptr %0, null
  br i1 %.old1.not, label %22, label %16

16:                                               ; preds = %10, %15
  %17 = load ptr, ptr %0, align 8, !tbaa !77
  %18 = getelementptr inbounds nuw i8, ptr %17, i64 12
  %19 = load i32, ptr %18, align 4, !tbaa !81
  %20 = icmp sgt i32 %19, 0
  br i1 %20, label %21, label %22

21:                                               ; preds = %16
  tail call void (ptr, ptr, ptr, ...) @Curl_trc_cf_infof(ptr noundef nonnull %1, ptr noundef nonnull %0, ptr noundef nonnull @.str.1) #5
  br label %22

22:                                               ; preds = %2, %3, %10, %15, %16, %21
  tail call fastcc void @tunnel_free(ptr noundef %0, ptr noundef %1)
  ret void
}